target datalayout = "e-m:e-p270:32:32-p271:32:32-p272:64:64-i64:64-i128:128-f80:128-n8:16:32:64-S128"
target triple = "x86_64-pc-linux-gnu"

%struct.VP8EncProba = type { [3 x i8], i8, [4 x [8 x [3 x [11 x i8]]]], [4 x [8 x [3 x [11 x i32]]]], [4 x [8 x [3 x [68 x i16]]]], [4 x [16 x [3 x ptr]]], i32, i32, i32 }
%struct.VP8Residual = type { i32, i32, ptr, i32, ptr, ptr, ptr }
%struct.VP8Encoder = type { ptr, ptr, %struct.VP8EncFilterHeader, %struct.VP8EncSegmentHeader, i32, i32, i32, i32, i32, %struct.VP8BitWriter, [8 x %struct.VP8BitWriter], %struct.VP8TBuffer, i32, i32, ptr, i32, %struct.WebPWorker, [4 x %struct.VP8SegmentInfo], i32, i32, i32, i32, i32, i32, i32, i32, %struct.VP8EncProba, [4 x i64], i64, i32, [3 x [4 x i32]], [3 x i32], i32, i32, i32, i32, i32, i32, i32, ptr, ptr, ptr, ptr, ptr, ptr, ptr }
%struct.VP8EncFilterHeader = type { i32, i32, i32, i32 }
%struct.VP8EncSegmentHeader = type { i32, i32, i32 }
%struct.VP8BitWriter = type { i32, i32, i32, i32, ptr, i64, i64, i32 }
%struct.VP8TBuffer = type { ptr, ptr, ptr, i32, i32, i32 }
%struct.WebPWorker = type { ptr, i32, ptr, ptr, ptr, i32 }
%struct.VP8SegmentInfo = type { %struct.VP8Matrix, %struct.VP8Matrix, %struct.VP8Matrix, i32, i32, i32, i32, i32, i32, i32, i32, i32, i32, i32, i32, i32, i32, i32, i64 }
%struct.VP8Matrix = type { [16 x i16], [16 x i16], [16 x i32], [16 x i32], [16 x i16] }
%struct.VP8EncIterator = type { i32, i32, ptr, ptr, ptr, ptr, ptr, ptr, ptr, ptr, ptr, [37 x i8], ptr, i32, [9 x i32], [9 x i32], [4 x [3 x i64]], i64, i64, ptr, i32, i32, i32, i32, [2 x [2 x i8]], ptr, ptr, ptr, ptr, ptr, ptr, [88 x i8], [3359 x i8] }
%struct.VP8ModeScore = type { i64, i64, i64, i64, i64, [16 x i16], [16 x [16 x i16]], [8 x [16 x i16]], i32, [16 x i8], i32, i32, [2 x [3 x i8]] }

@VP8SetResidualCoeffs = external global ptr, align 8
@VP8GetResidualCost = external global ptr, align 8

; Function Attrs: nounwind uwtable
define hidden void @VP8InitResidual(i32 noundef %0, i32 noundef %1, ptr noundef %2, ptr noundef %3) #0 {
  %5 = alloca i32, align 4
  %6 = alloca i32, align 4
  %7 = alloca ptr, align 8
  %8 = alloca ptr, align 8
  store i32 %0, ptr %5, align 4
  store i32 %1, ptr %6, align 4
  store ptr %2, ptr %7, align 8
  store ptr %3, ptr %8, align 8
  %9 = load i32, ptr %6, align 4
  %10 = load ptr, ptr %8, align 8
  %11 = getelementptr inbounds %struct.VP8Residual, ptr %10, i32 0, i32 3
  store i32 %9, ptr %11, align 8
  %12 = load ptr, ptr %7, align 8
  %13 = getelementptr inbounds %struct.VP8Encoder, ptr %12, i32 0, i32 26
  %14 = getelementptr inbounds %struct.VP8EncProba, ptr %13, i32 0, i32 2
  %15 = load i32, ptr %6, align 4
  %16 = sext i32 %15 to i64
  %17 = getelementptr inbounds [4 x [8 x [3 x [11 x i8]]]], ptr %14, i64 0, i64 %16
  %18 = getelementptr inbounds [8 x [3 x [11 x i8]]], ptr %17, i64 0, i64 0
  %19 = load ptr, ptr %8, align 8
  %20 = getelementptr inbounds %struct.VP8Residual, ptr %19, i32 0, i32 4
  store ptr %18, ptr %20, align 8
  %21 = load ptr, ptr %7, align 8
  %22 = getelementptr inbounds %struct.VP8Encoder, ptr %21, i32 0, i32 26
  %23 = getelementptr inbounds %struct.VP8EncProba, ptr %22, i32 0, i32 3
  %24 = load i32, ptr %6, align 4
  %25 = sext i32 %24 to i64
  %26 = getelementptr inbounds [4 x [8 x [3 x [11 x i32]]]], ptr %23, i64 0, i64 %25
  %27 = getelementptr inbounds [8 x [3 x [11 x i32]]], ptr %26, i64 0, i64 0
  %28 = load ptr, ptr %8, align 8
  %29 = getelementptr inbounds %struct.VP8Residual, ptr %28, i32 0, i32 5
  store ptr %27, ptr %29, align 8
  %30 = load ptr, ptr %7, align 8
  %31 = getelementptr inbounds %struct.VP8Encoder, ptr %30, i32 0, i32 26
  %32 = getelementptr inbounds %struct.VP8EncProba, ptr %31, i32 0, i32 5
  %33 = load i32, ptr %6, align 4
  %34 = sext i32 %33 to i64
  %35 = getelementptr inbounds [4 x [16 x [3 x ptr]]], ptr %32, i64 0, i64 %34
  %36 = getelementptr inbounds [16 x [3 x ptr]], ptr %35, i64 0, i64 0
  %37 = load ptr, ptr %8, align 8
  %38 = getelementptr inbounds %struct.VP8Residual, ptr %37, i32 0, i32 6
  store ptr %36, ptr %38, align 8
  %39 = load i32, ptr %5, align 4
  %40 = load ptr, ptr %8, align 8
  %41 = getelementptr inbounds %struct.VP8Residual, ptr %40, i32 0, i32 0
  store i32 %39, ptr %41, align 8
  ret void
}

; Function Attrs: nounwind uwtable
define hidden i32 @VP8GetCostUV(ptr noundef %0, ptr noundef %1) #0 {
  %3 = alloca ptr, align 8
  %4 = alloca ptr, align 8
  %5 = alloca %struct.VP8Residual, align 8
  %6 = alloca ptr, align 8
  %7 = alloca i32, align 4
  %8 = alloca i32, align 4
  %9 = alloca i32, align 4
  %10 = alloca i32, align 4
  %11 = alloca i32, align 4
  store ptr %0, ptr %3, align 8
  store ptr %1, ptr %4, align 8
  %12 = load ptr, ptr %3, align 8
  %13 = getelementptr inbounds %struct.VP8EncIterator, ptr %12, i32 0, i32 6
  %14 = load ptr, ptr %13, align 8
  store ptr %14, ptr %6, align 8
  store i32 0, ptr %10, align 4
  %15 = load ptr, ptr %3, align 8
  call void @VP8IteratorNzToBytes(ptr noundef %15)
  %16 = load ptr, ptr %6, align 8
  call void @VP8InitResidual(i32 noundef 0, i32 noundef 2, ptr noundef %16, ptr noundef %5)
  store i32 0, ptr %7, align 4
  br label %17

17:                                               ; preds = %94, %2
  %18 = load i32, ptr %7, align 4
  %19 = icmp sle i32 %18, 2
  br i1 %19, label %20, label %97

20:                                               ; preds = %17
  store i32 0, ptr %9, align 4
  br label %21

21:                                               ; preds = %90, %20
  %22 = load i32, ptr %9, align 4
  %23 = icmp slt i32 %22, 2
  br i1 %23, label %24, label %93

24:                                               ; preds = %21
  store i32 0, ptr %8, align 4
  br label %25

25:                                               ; preds = %86, %24
  %26 = load i32, ptr %8, align 4
  %27 = icmp slt i32 %26, 2
  br i1 %27, label %28, label %89

28:                                               ; preds = %25
  %29 = load ptr, ptr %3, align 8
  %30 = getelementptr inbounds %struct.VP8EncIterator, ptr %29, i32 0, i32 14
  %31 = load i32, ptr %7, align 4
  %32 = add nsw i32 4, %31
  %33 = load i32, ptr %8, align 4
  %34 = add nsw i32 %32, %33
  %35 = sext i32 %34 to i64
  %36 = getelementptr inbounds [9 x i32], ptr %30, i64 0, i64 %35
  %37 = load i32, ptr %36, align 4
  %38 = load ptr, ptr %3, align 8
  %39 = getelementptr inbounds %struct.VP8EncIterator, ptr %38, i32 0, i32 15
  %40 = load i32, ptr %7, align 4
  %41 = add nsw i32 4, %40
  %42 = load i32, ptr %9, align 4
  %43 = add nsw i32 %41, %42
  %44 = sext i32 %43 to i64
  %45 = getelementptr inbounds [9 x i32], ptr %39, i64 0, i64 %44
  %46 = load i32, ptr %45, align 4
  %47 = add nsw i32 %37, %46
  store i32 %47, ptr %11, align 4
  %48 = load ptr, ptr @VP8SetResidualCoeffs, align 8
  %49 = load ptr, ptr %4, align 8
  %50 = getelementptr inbounds %struct.VP8ModeScore, ptr %49, i32 0, i32 7
  %51 = load i32, ptr %7, align 4
  %52 = mul nsw i32 %51, 2
  %53 = load i32, ptr %8, align 4
  %54 = add nsw i32 %52, %53
  %55 = load i32, ptr %9, align 4
  %56 = mul nsw i32 %55, 2
  %57 = add nsw i32 %54, %56
  %58 = sext i32 %57 to i64
  %59 = getelementptr inbounds [8 x [16 x i16]], ptr %50, i64 0, i64 %58
  %60 = getelementptr inbounds [16 x i16], ptr %59, i64 0, i64 0
  call void %48(ptr noundef %60, ptr noundef %5)
  %61 = load ptr, ptr @VP8GetResidualCost, align 8
  %62 = load i32, ptr %11, align 4
  %63 = call i32 %61(i32 noundef %62, ptr noundef %5)
  %64 = load i32, ptr %10, align 4
  %65 = add nsw i32 %64, %63
  store i32 %65, ptr %10, align 4
  %66 = getelementptr inbounds %struct.VP8Residual, ptr %5, i32 0, i32 1
  %67 = load i32, ptr %66, align 4
  %68 = icmp sge i32 %67, 0
  %69 = zext i1 %68 to i32
  %70 = load ptr, ptr %3, align 8
  %71 = getelementptr inbounds %struct.VP8EncIterator, ptr %70, i32 0, i32 15
  %72 = load i32, ptr %7, align 4
  %73 = add nsw i32 4, %72
  %74 = load i32, ptr %9, align 4
  %75 = add nsw i32 %73, %74
  %76 = sext i32 %75 to i64
  %77 = getelementptr inbounds [9 x i32], ptr %71, i64 0, i64 %76
  store i32 %69, ptr %77, align 4
  %78 = load ptr, ptr %3, align 8
  %79 = getelementptr inbounds %struct.VP8EncIterator, ptr %78, i32 0, i32 14
  %80 = load i32, ptr %7, align 4
  %81 = add nsw i32 4, %80
  %82 = load i32, ptr %8, align 4
  %83 = add nsw i32 %81, %82
  %84 = sext i32 %83 to i64
  %85 = getelementptr inbounds [9 x i32], ptr %79, i64 0, i64 %84
  store i32 %69, ptr %85, align 4
  br label %86

86:                                               ; preds = %28
  %87 = load i32, ptr %8, align 4
  %88 = add nsw i32 %87, 1
  store i32 %88, ptr %8, align 4
  br label %25, !llvm.loop !14

89:                                               ; preds = %25
  br label %90

90:                                               ; preds = %89
  %91 = load i32, ptr %9, align 4
  %92 = add nsw i32 %91, 1
  store i32 %92, ptr %9, align 4
  br label %21, !llvm.loop !15

93:                                               ; preds = %21
  br label %94

94:                                               ; preds = %93
  %95 = load i32, ptr %7, align 4
  %96 = add nsw i32 %95, 2
  store i32 %96, ptr %7, align 4
  br label %17, !llvm.loop !16

97:                                               ; preds = %17
  %98 = load i32, ptr %10, align 4
  ret i32 %98
}