; Function Attrs: nounwind uwtable
define hidden i32 @VP8GetCostUV(ptr noundef %0, ptr noundef %1) local_unnamed_addr #2 {
  %3 = alloca %struct.VP8Residual, align 8
  %4 = getelementptr inbounds i8, ptr %0, i64 40
  %5 = load ptr, ptr %4, align 8
  tail call void @VP8IteratorNzToBytes(ptr noundef %0) #7
  %6 = getelementptr inbounds i8, ptr %3, i64 16
  store i32 2, ptr %6, align 8
  %7 = getelementptr inbounds i8, ptr %5, i64 4148
  %8 = getelementptr inbounds i8, ptr %3, i64 24
  store ptr %7, ptr %8, align 8
  %9 = getelementptr inbounds i8, ptr %5, i64 6788
  %10 = getelementptr inbounds i8, ptr %3, i64 32
  store ptr %9, ptr %10, align 8
  %11 = getelementptr inbounds i8, ptr %5, i64 22728
  %12 = getelementptr inbounds i8, ptr %3, i64 40
  store ptr %11, ptr %12, align 8
  store i32 0, ptr %3, align 8
  %13 = getelementptr inbounds i8, ptr %0, i64 132
  %14 = getelementptr inbounds i8, ptr %0, i64 168
  %15 = getelementptr inbounds i8, ptr %1, i64 584
  %16 = getelementptr inbounds i8, ptr %3, i64 4
  br label %.preheader30

.preheader30:                                     ; preds = %2, %41
  %17 = phi i1 [ true, %2 ], [ false, %41 ]
  %indvars.iv41 = phi i64 [ 0, %2 ], [ 2, %41 ]
  %.02735 = phi i32 [ 0, %2 ], [ %36, %41 ]
  %18 = or disjoint i64 %indvars.iv41, 4
  br label %.preheader

.preheader:                                       ; preds = %.preheader30, %40
  %19 = phi i1 [ true, %.preheader30 ], [ false, %40 ]
  %indvars.iv38 = phi i64 [ 0, %.preheader30 ], [ 1, %40 ]
  %.134 = phi i32 [ %.02735, %.preheader30 ], [ %36, %40 ]
  %20 = or disjoint i64 %indvars.iv38, %18
  %21 = getelementptr inbounds [9 x i32], ptr %14, i64 0, i64 %20
  %22 = or disjoint i64 %indvars.iv38, %indvars.iv41
  %23 = shl nuw nsw i64 %22, 1
  br label %24

24:                                               ; preds = %.preheader, %24
  %25 = phi i1 [ true, %.preheader ], [ false, %24 ]
  %indvars.iv = phi i64 [ 0, %.preheader ], [ 1, %24 ]
  %.232 = phi i32 [ %.134, %.preheader ], [ %36, %24 ]
  %26 = or disjoint i64 %indvars.iv, %18
  %27 = getelementptr inbounds [9 x i32], ptr %13, i64 0, i64 %26
  %28 = load i32, ptr %27, align 4
  %29 = load i32, ptr %21, align 4
  %30 = add nsw i32 %29, %28
  %31 = load ptr, ptr @VP8SetResidualCoeffs, align 8
  %32 = or disjoint i64 %indvars.iv, %23
  %33 = getelementptr inbounds [8 x [16 x i16]], ptr %15, i64 0, i64 %32
  call void %31(ptr noundef nonnull %33, ptr noundef nonnull %3) #7
  %34 = load ptr, ptr @VP8GetResidualCost, align 8
  %35 = call i32 %34(i32 noundef %30, ptr noundef nonnull %3) #7
  %36 = add nsw i32 %35, %.232
  %37 = load i32, ptr %16, align 4
  %38 = icmp sgt i32 %37, -1
  %39 = zext i1 %38 to i32
  store i32 %39, ptr %21, align 4
  store i32 %39, ptr %27, align 4
  br i1 %25, label %24, label %40, !llvm.loop !14

40:                                               ; preds = %24
  br i1 %19, label %.preheader, label %41, !llvm.loop !15

41:                                               ; preds = %40
  br i1 %17, label %.preheader30, label %42, !llvm.loop !16

42:                                               ; preds = %41
  ret i32 %36
}